; Function Attrs: mustprogress uwtable
define noundef i32 @_ZNK8facebook5velox4exec7EvalCtx12wrapEncodingEv(ptr nocapture noundef nonnull readonly align 8 dereferenceable(104) %this) local_unnamed_addr #0 align 2 {
entry:
  %peeledEncoding_ = getelementptr inbounds i8, ptr %this, i64 56
  %0 = load ptr, ptr %peeledEncoding_, align 8
  %cmp.i.not = icmp eq ptr %0, null
  br i1 %cmp.i.not, label %cond.end, label %cond.false

cond.false:                                       ; preds = %entry
  %call4 = tail call noundef i32 @_ZNK8facebook5velox4exec14PeeledEncoding12wrapEncodingEv(ptr noundef nonnull align 8 dereferenceable(32) %0)
  br label %cond.end

cond.end:                                         ; preds = %entry, %cond.false
  %cond = phi i32 [ %call4, %cond.false ], [ 3, %entry ]
  ret i32 %cond
}